; Function Attrs: mustprogress nofree norecurse nosync nounwind sspstrong willreturn memory(argmem: read) uwtable
define hidden zeroext i1 @rb_splat_or_kwargs_p(ptr noalias noundef %0) local_unnamed_addr #13 {
  %2 = ptrtoint ptr %0 to i64
  %3 = and i64 %2, 1
  %.not.i.not.i = icmp eq i64 %3, 0
  br i1 %.not.i.not.i, label %vm_ci_flag.exit, label %vm_ci_flag.exit.thread

vm_ci_flag.exit:                                  ; preds = %1
  %4 = getelementptr inbounds nuw i8, ptr %0, i64 24
  %5 = load i64, ptr %4, align 8, !tbaa !169
  %6 = and i64 %5, 1
  %.not = icmp eq i64 %6, 0
  br i1 %.not, label %10, label %14

vm_ci_flag.exit.thread:                           ; preds = %1
  %7 = and i64 %2, 65536
  %.not6 = icmp eq i64 %7, 0
  br i1 %.not6, label %.thread, label %14

.thread:                                          ; preds = %vm_ci_flag.exit.thread
  %8 = trunc i64 %2 to i32
  %9 = lshr i32 %8, 16
  br label %vm_ci_flag.exit4

10:                                               ; preds = %vm_ci_flag.exit
  %11 = trunc i64 %5 to i32
  br label %vm_ci_flag.exit4

vm_ci_flag.exit4:                                 ; preds = %.thread, %10
  %.0.i3 = phi i32 [ %9, %.thread ], [ %11, %10 ]
  %12 = and i32 %.0.i3, 96
  %13 = icmp ne i32 %12, 0
  br label %14

14:                                               ; preds = %vm_ci_flag.exit.thread, %vm_ci_flag.exit4, %vm_ci_flag.exit
  %15 = phi i1 [ true, %vm_ci_flag.exit ], [ %13, %vm_ci_flag.exit4 ], [ true, %vm_ci_flag.exit.thread ]
  ret i1 %15
}